target datalayout = "e-m:e-p270:32:32-p271:32:32-p272:64:64-i64:64-i128:128-f80:128-n8:16:32:64-S128"
target triple = "x86_64-pc-linux-gnu"

%struct.opj_j2k = type { i32, %union.anon, ptr, ptr, %struct.opj_cp, ptr, ptr, ptr, i32, ptr, ptr, i32, i32, i32 }
%union.anon = type { %struct.opj_j2k_dec }
%struct.opj_j2k_dec = type { i32, ptr, ptr, i32, i32, i32, i32, i32, i32, i32, i64, i32, i32, ptr, %struct.opj_j2k_tlm_info, i32, i32, ptr, i8 }
%struct.opj_j2k_tlm_info = type { i32, ptr, i32 }
%struct.opj_cp = type { i16, i32, i32, i32, i32, ptr, i32, i32, i32, ptr, ptr, i32, i32, ptr, ptr, ptr, i32, i32, i32, ptr, %union.anon.0, i32, i8 }
%union.anon.0 = type { %struct.opj_encoding_param }
%struct.opj_encoding_param = type { i32, i32, ptr, i8, i32, i8 }
%struct.opj_j2k_enc = type { i32, i32, i32, i32, i64, ptr, ptr, i32, ptr, i32, ptr, i32, i32, i32, i32 }

; Function Attrs: nounwind uwtable
define internal i32 @opj_j2k_write_eoc(ptr noundef %0, ptr noundef %1, ptr noundef %2) #0 {
  %4 = alloca i32, align 4
  %5 = alloca ptr, align 8
  %6 = alloca ptr, align 8
  %7 = alloca ptr, align 8
  store ptr %0, ptr %5, align 8, !tbaa !14
  store ptr %1, ptr %6, align 8, !tbaa !206
  store ptr %2, ptr %7, align 8, !tbaa !48
  %8 = load ptr, ptr %5, align 8, !tbaa !14
  %9 = getelementptr inbounds nuw %struct.opj_j2k, ptr %8, i32 0, i32 1
  %10 = getelementptr inbounds nuw %struct.opj_j2k_enc, ptr %9, i32 0, i32 10
  %11 = load ptr, ptr %10, align 8, !tbaa !20
  call void @opj_write_bytes_LE(ptr noundef %11, i32 noundef 65497, i32 noundef 2)
  %12 = load ptr, ptr %6, align 8, !tbaa !206
  %13 = load ptr, ptr %5, align 8, !tbaa !14
  %14 = getelementptr inbounds nuw %struct.opj_j2k, ptr %13, i32 0, i32 1
  %15 = getelementptr inbounds nuw %struct.opj_j2k_enc, ptr %14, i32 0, i32 10
  %16 = load ptr, ptr %15, align 8, !tbaa !20
  %17 = load ptr, ptr %7, align 8, !tbaa !48
  %18 = call i64 @opj_stream_write_data(ptr noundef %12, ptr noundef %16, i64 noundef 2, ptr noundef %17)
  %19 = icmp ne i64 %18, 2
  br i1 %19, label %20, label %21

20:                                               ; preds = %3
  store i32 0, ptr %4, align 4
  br label %28

21:                                               ; preds = %3
  %22 = load ptr, ptr %6, align 8, !tbaa !206
  %23 = load ptr, ptr %7, align 8, !tbaa !48
  %24 = call i32 @opj_stream_flush(ptr noundef %22, ptr noundef %23)
  %25 = icmp ne i32 %24, 0
  br i1 %25, label %27, label %26

26:                                               ; preds = %21
  store i32 0, ptr %4, align 4
  br label %28

27:                                               ; preds = %21
  store i32 1, ptr %4, align 4
  br label %28

28:                                               ; preds = %27, %26, %20
  %29 = load i32, ptr %4, align 4
  ret i32 %29
}