; Function Attrs: nounwind uwtable
define internal range(i32 0, 2) i32 @opj_j2k_write_eoc(ptr noundef readonly captures(none) %0, ptr noundef %1, ptr noundef %2) #3 {
  %4 = getelementptr inbounds nuw i8, ptr %0, i64 72
  %5 = load ptr, ptr %4, align 8, !tbaa !12
  tail call void @opj_write_bytes_LE(ptr noundef %5, i32 noundef 65497, i32 noundef 2) #21
  %6 = load ptr, ptr %4, align 8, !tbaa !12
  %7 = tail call i64 @opj_stream_write_data(ptr noundef %1, ptr noundef %6, i64 noundef 2, ptr noundef %2) #21
  %.not = icmp eq i64 %7, 2
  br i1 %.not, label %8, label %10

8:                                                ; preds = %3
  %9 = tail call i32 @opj_stream_flush(ptr noundef %1, ptr noundef %2) #21
  %.not6 = icmp ne i32 %9, 0
  %. = zext i1 %.not6 to i32
  br label %10

10:                                               ; preds = %8, %3
  %.0 = phi i32 [ 0, %3 ], [ %., %8 ]
  ret i32 %.0
}